; Function Attrs: nounwind uwtable
define void @EVP_MD_CTX_free(ptr noundef %0) local_unnamed_addr #0 {
  %2 = icmp eq ptr %0, null
  br i1 %2, label %8, label %3

3:                                                ; preds = %1
  %4 = tail call i32 @EVP_MD_CTX_test_flags(ptr noundef nonnull %0, i32 noundef 1024) #8
  %.not.i.i = icmp eq i32 %4, 0
  br i1 %.not.i.i, label %5, label %EVP_MD_CTX_reset.exit

5:                                                ; preds = %3
  %6 = getelementptr inbounds nuw i8, ptr %0, i64 40
  %7 = load ptr, ptr %6, align 8, !tbaa !26
  tail call void @EVP_PKEY_CTX_free(ptr noundef %7) #8
  store ptr null, ptr %6, align 8, !tbaa !26
  br label %EVP_MD_CTX_reset.exit

EVP_MD_CTX_reset.exit:                            ; preds = %3, %5
  tail call void @evp_md_ctx_clear_digest(ptr noundef nonnull %0, i32 noundef 0, i32 noundef 0)
  tail call void @OPENSSL_cleanse(ptr noundef nonnull %0, i64 noundef 72) #8
  tail call void @CRYPTO_free(ptr noundef nonnull %0, ptr noundef nonnull @.str, i32 noundef 140) #8
  br label %8

8:                                                ; preds = %1, %EVP_MD_CTX_reset.exit
  ret void
}